; Function Attrs: mustprogress nounwind uwtable
define internal fastcc void @_ZN12_GLOBAL__N_112USRGenerator17VisitTemplateNameEN5clang12TemplateNameE(ptr noundef nonnull align 8 dereferenceable(112) %0, i64 %1) unnamed_addr #0 align 2 {
  %3 = alloca %"class.clang::TemplateName", align 8
  store i64 %1, ptr %3, align 8
  %4 = call noundef ptr @_ZNK5clang12TemplateName17getAsTemplateDeclEv(ptr noundef nonnull align 8 dereferenceable(8) %3) #14
  %.not = icmp eq ptr %4, null
  br i1 %.not, label %37, label %5

5:                                                ; preds = %2
  %6 = getelementptr inbounds nuw i8, ptr %4, i64 28
  %7 = load i32, ptr %6, align 4
  %8 = and i32 %7, 127
  %.not13 = icmp eq i32 %8, 65
  br i1 %.not13, label %9, label %36

9:                                                ; preds = %5
  %10 = getelementptr inbounds nuw i8, ptr %0, i64 8
  %11 = getelementptr inbounds nuw i8, ptr %0, i64 40
  %12 = load ptr, ptr %11, align 8
  %13 = getelementptr inbounds nuw i8, ptr %0, i64 32
  %14 = load ptr, ptr %13, align 8
  %.not.i = icmp ult ptr %12, %14
  br i1 %.not.i, label %17, label %15

15:                                               ; preds = %9
  %16 = call noundef nonnull align 8 dereferenceable(48) ptr @_ZN4llvm11raw_ostream5writeEh(ptr noundef nonnull align 8 dereferenceable(48) %10, i8 noundef zeroext 116) #14
  br label %_ZN4llvm11raw_ostreamlsEc.exit

17:                                               ; preds = %9
  %18 = getelementptr inbounds nuw i8, ptr %12, i64 1
  store ptr %18, ptr %11, align 8
  store i8 116, ptr %12, align 1
  br label %_ZN4llvm11raw_ostreamlsEc.exit

_ZN4llvm11raw_ostreamlsEc.exit:                   ; preds = %15, %17
  %.0.i = phi ptr [ %16, %15 ], [ %10, %17 ]
  %19 = getelementptr inbounds nuw i8, ptr %4, i64 64
  %20 = load i32, ptr %19, align 4
  %21 = and i32 %20, 1048575
  %22 = zext nneg i32 %21 to i64
  %23 = call noundef nonnull align 8 dereferenceable(48) ptr @_ZN4llvm11raw_ostreamlsEm(ptr noundef nonnull align 8 dereferenceable(48) %.0.i, i64 noundef %22) #14
  %24 = getelementptr inbounds nuw i8, ptr %23, i64 32
  %25 = load ptr, ptr %24, align 8
  %26 = getelementptr inbounds nuw i8, ptr %23, i64 24
  %27 = load ptr, ptr %26, align 8
  %.not.i9 = icmp ult ptr %25, %27
  br i1 %.not.i9, label %30, label %28

28:                                               ; preds = %_ZN4llvm11raw_ostreamlsEc.exit
  %29 = call noundef nonnull align 8 dereferenceable(48) ptr @_ZN4llvm11raw_ostream5writeEh(ptr noundef nonnull align 8 dereferenceable(48) %23, i8 noundef zeroext 46) #14
  br label %_ZN4llvm11raw_ostreamlsEc.exit11

30:                                               ; preds = %_ZN4llvm11raw_ostreamlsEc.exit
  %31 = getelementptr inbounds nuw i8, ptr %25, i64 1
  store ptr %31, ptr %24, align 8
  store i8 46, ptr %25, align 1
  br label %_ZN4llvm11raw_ostreamlsEc.exit11

_ZN4llvm11raw_ostreamlsEc.exit11:                 ; preds = %28, %30
  %.0.i10 = phi ptr [ %29, %28 ], [ %23, %30 ]
  %32 = load i32, ptr %19, align 4
  %33 = lshr i32 %32, 20
  %34 = zext nneg i32 %33 to i64
  %35 = call noundef nonnull align 8 dereferenceable(48) ptr @_ZN4llvm11raw_ostreamlsEm(ptr noundef nonnull align 8 dereferenceable(48) %.0.i10, i64 noundef %34) #14
  br label %37

36:                                               ; preds = %5
  call fastcc void @_ZN5clang11declvisitor4BaseIN4llvm14make_const_ptrEN12_GLOBAL__N_112USRGeneratorEvE5VisitEPKNS_4DeclE(ptr noundef nonnull align 1 dereferenceable(1) %0, ptr noundef nonnull %4)
  br label %37

37:                                               ; preds = %36, %_ZN4llvm11raw_ostreamlsEc.exit11, %2
  ret void
}